target datalayout = "e-m:e-p270:32:32-p271:32:32-p272:64:64-i64:64-i128:128-f80:128-n8:16:32:64-S128"
target triple = "x86_64-pc-linux-gnu"

%struct.lv_area_t = type { i32, i32, i32, i32 }
%struct.lv_color_t = type { i8, i8, i8 }
%struct._lv_draw_image_dsc_t = type { %struct.lv_draw_dsc_base_t, ptr, %struct.lv_image_header_t, i32, i32, i32, i32, i32, %struct.lv_point_t, %struct.lv_color_t, i8, i8, i8, ptr, %struct.lv_area_t, i32, ptr }
%struct.lv_draw_dsc_base_t = type { ptr, i32, i32, i32, ptr, i64, ptr }
%struct.lv_image_header_t = type <{ i64, i32 }>
%struct.lv_point_t = type { i32, i32 }
%struct._lv_draw_task_t = type { ptr, i32, %struct.lv_area_t, %struct.lv_area_t, %struct.lv_area_t, %struct.lv_area_t, i32, ptr, i8, i8 }

; Function Attrs: nounwind uwtable
define void @lv_draw_image(ptr noundef %0, ptr noundef %1, ptr noundef %2) #0 {
  %4 = alloca ptr, align 8
  %5 = alloca ptr, align 8
  %6 = alloca ptr, align 8
  %7 = alloca ptr, align 8
  %8 = alloca i32, align 4
  %9 = alloca i32, align 4
  %10 = alloca ptr, align 8
  store ptr %0, ptr %4, align 8, !tbaa !3
  store ptr %1, ptr %5, align 8, !tbaa !3
  store ptr %2, ptr %6, align 8, !tbaa !3
  %11 = load ptr, ptr %5, align 8, !tbaa !3
  %12 = getelementptr inbounds nuw %struct._lv_draw_image_dsc_t, ptr %11, i32 0, i32 1
  %13 = load ptr, ptr %12, align 8, !tbaa !31
  %14 = icmp eq ptr %13, null
  br i1 %14, label %15, label %18

15:                                               ; preds = %3
  br label %16

16:                                               ; preds = %15
  br label %17

17:                                               ; preds = %16
  br label %94

18:                                               ; preds = %3
  %19 = load ptr, ptr %5, align 8, !tbaa !3
  %20 = getelementptr inbounds nuw %struct._lv_draw_image_dsc_t, ptr %19, i32 0, i32 11
  %21 = load i8, ptr %20, align 4, !tbaa !9
  %22 = zext i8 %21 to i32
  %23 = icmp sle i32 %22, 2
  br i1 %23, label %24, label %25

24:                                               ; preds = %18
  br label %94

25:                                               ; preds = %18
  %26 = load ptr, ptr %5, align 8, !tbaa !3
  %27 = getelementptr inbounds nuw %struct._lv_draw_image_dsc_t, ptr %26, i32 0, i32 4
  %28 = load i32, ptr %27, align 8, !tbaa !19
  %29 = icmp sle i32 %28, 0
  br i1 %29, label %35, label %30

30:                                               ; preds = %25
  %31 = load ptr, ptr %5, align 8, !tbaa !3
  %32 = getelementptr inbounds nuw %struct._lv_draw_image_dsc_t, ptr %31, i32 0, i32 5
  %33 = load i32, ptr %32, align 4, !tbaa !20
  %34 = icmp sle i32 %33, 0
  br i1 %34, label %35, label %36

35:                                               ; preds = %30, %25
  br label %94

36:                                               ; preds = %30
  call void @llvm.lifetime.start.p0(i64 8, ptr %7) #5
  %37 = call ptr @lv_malloc(i64 noundef 144)
  store ptr %37, ptr %7, align 8, !tbaa !3
  %38 = load ptr, ptr %7, align 8, !tbaa !3
  %39 = load ptr, ptr %5, align 8, !tbaa !3
  %40 = call ptr @lv_memcpy(ptr noundef %38, ptr noundef %39, i64 noundef 144)
  call void @llvm.lifetime.start.p0(i64 4, ptr %8) #5
  %41 = load ptr, ptr %7, align 8, !tbaa !3
  %42 = getelementptr inbounds nuw %struct._lv_draw_image_dsc_t, ptr %41, i32 0, i32 1
  %43 = load ptr, ptr %42, align 8, !tbaa !31
  %44 = load ptr, ptr %7, align 8, !tbaa !3
  %45 = getelementptr inbounds nuw %struct._lv_draw_image_dsc_t, ptr %44, i32 0, i32 2
  %46 = call i32 @lv_image_decoder_get_info(ptr noundef %43, ptr noundef %45)
  store i32 %46, ptr %8, align 4, !tbaa !35
  %47 = load i32, ptr %8, align 4, !tbaa !35
  %48 = icmp ne i32 %47, 1
  br i1 %48, label %49, label %54

49:                                               ; preds = %36
  br label %50

50:                                               ; preds = %49
  br label %51

51:                                               ; preds = %50
  br label %52

52:                                               ; preds = %51
  %53 = load ptr, ptr %7, align 8, !tbaa !3
  call void @lv_free(ptr noundef %53)
  store i32 1, ptr %9, align 4
  br label %92

54:                                               ; preds = %36
  call void @llvm.lifetime.start.p0(i64 8, ptr %10) #5
  %55 = load ptr, ptr %4, align 8, !tbaa !3
  %56 = load ptr, ptr %6, align 8, !tbaa !3
  %57 = call ptr @lv_draw_add_task(ptr noundef %55, ptr noundef %56)
  store ptr %57, ptr %10, align 8, !tbaa !3
  %58 = load ptr, ptr %7, align 8, !tbaa !3
  %59 = load ptr, ptr %10, align 8, !tbaa !3
  %60 = getelementptr inbounds nuw %struct._lv_draw_task_t, ptr %59, i32 0, i32 7
  store ptr %58, ptr %60, align 8, !tbaa !26
  %61 = load ptr, ptr %10, align 8, !tbaa !3
  %62 = getelementptr inbounds nuw %struct._lv_draw_task_t, ptr %61, i32 0, i32 1
  store i32 5, ptr %62, align 8, !tbaa !24
  %63 = load ptr, ptr %10, align 8, !tbaa !3
  %64 = getelementptr inbounds nuw %struct._lv_draw_task_t, ptr %63, i32 0, i32 3
  %65 = load ptr, ptr %6, align 8, !tbaa !3
  %66 = call i32 @lv_area_get_width(ptr noundef %65)
  %67 = load ptr, ptr %6, align 8, !tbaa !3
  %68 = call i32 @lv_area_get_height(ptr noundef %67)
  %69 = load ptr, ptr %5, align 8, !tbaa !3
  %70 = getelementptr inbounds nuw %struct._lv_draw_image_dsc_t, ptr %69, i32 0, i32 3
  %71 = load i32, ptr %70, align 4, !tbaa !28
  %72 = load ptr, ptr %5, align 8, !tbaa !3
  %73 = getelementptr inbounds nuw %struct._lv_draw_image_dsc_t, ptr %72, i32 0, i32 4
  %74 = load i32, ptr %73, align 8, !tbaa !19
  %75 = trunc i32 %74 to i16
  %76 = load ptr, ptr %5, align 8, !tbaa !3
  %77 = getelementptr inbounds nuw %struct._lv_draw_image_dsc_t, ptr %76, i32 0, i32 5
  %78 = load i32, ptr %77, align 4, !tbaa !20
  %79 = trunc i32 %78 to i16
  %80 = load ptr, ptr %5, align 8, !tbaa !3
  %81 = getelementptr inbounds nuw %struct._lv_draw_image_dsc_t, ptr %80, i32 0, i32 8
  call void @lv_image_buf_get_transformed_area(ptr noundef %64, i32 noundef %66, i32 noundef %68, i32 noundef %71, i16 noundef zeroext %75, i16 noundef zeroext %79, ptr noundef %81)
  %82 = load ptr, ptr %10, align 8, !tbaa !3
  %83 = getelementptr inbounds nuw %struct._lv_draw_task_t, ptr %82, i32 0, i32 3
  %84 = load ptr, ptr %6, align 8, !tbaa !3
  %85 = getelementptr inbounds nuw %struct.lv_area_t, ptr %84, i32 0, i32 0
  %86 = load i32, ptr %85, align 4, !tbaa !29
  %87 = load ptr, ptr %6, align 8, !tbaa !3
  %88 = getelementptr inbounds nuw %struct.lv_area_t, ptr %87, i32 0, i32 1
  %89 = load i32, ptr %88, align 4, !tbaa !30
  call void @lv_area_move(ptr noundef %83, i32 noundef %86, i32 noundef %89)
  %90 = load ptr, ptr %4, align 8, !tbaa !3
  %91 = load ptr, ptr %10, align 8, !tbaa !3
  call void @lv_draw_finalize_task_creation(ptr noundef %90, ptr noundef %91)
  call void @llvm.lifetime.end.p0(i64 8, ptr %10) #5
  store i32 0, ptr %9, align 4
  br label %92

92:                                               ; preds = %54, %52
  call void @llvm.lifetime.end.p0(i64 4, ptr %8) #5
  call void @llvm.lifetime.end.p0(i64 8, ptr %7) #5
  %93 = load i32, ptr %9, align 4
  switch i32 %93, label %95 [
    i32 0, label %94
    i32 1, label %94
  ]

94:                                               ; preds = %17, %24, %35, %92, %92
  ret void

95:                                               ; preds = %92
  unreachable
}