; Function Attrs: nounwind uwtable
define void @lv_draw_image(ptr noundef %0, ptr noundef %1, ptr noundef %2) local_unnamed_addr #0 {
  %4 = getelementptr inbounds nuw i8, ptr %1, i64 48
  %5 = load ptr, ptr %4, align 8, !tbaa !27
  %6 = icmp eq ptr %5, null
  br i1 %6, label %44, label %7

7:                                                ; preds = %3
  %8 = getelementptr inbounds nuw i8, ptr %1, i64 100
  %9 = load i8, ptr %8, align 4, !tbaa !3
  %10 = icmp ult i8 %9, 3
  br i1 %10, label %44, label %11

11:                                               ; preds = %7
  %12 = getelementptr inbounds nuw i8, ptr %1, i64 72
  %13 = load i32, ptr %12, align 8, !tbaa !16
  %14 = icmp slt i32 %13, 1
  br i1 %14, label %44, label %15

15:                                               ; preds = %11
  %16 = getelementptr inbounds nuw i8, ptr %1, i64 76
  %17 = load i32, ptr %16, align 4, !tbaa !17
  %18 = icmp slt i32 %17, 1
  br i1 %18, label %44, label %19

19:                                               ; preds = %15
  %20 = tail call ptr @lv_malloc(i64 noundef 144) #6
  %21 = tail call ptr @lv_memcpy(ptr noundef %20, ptr noundef nonnull %1, i64 noundef 144) #6
  %22 = getelementptr inbounds nuw i8, ptr %20, i64 48
  %23 = load ptr, ptr %22, align 8, !tbaa !27
  %24 = getelementptr inbounds nuw i8, ptr %20, i64 56
  %25 = tail call i32 @lv_image_decoder_get_info(ptr noundef %23, ptr noundef nonnull %24) #6
  %.not = icmp eq i32 %25, 1
  br i1 %.not, label %27, label %26

26:                                               ; preds = %19
  tail call void @lv_free(ptr noundef nonnull %20) #6
  br label %44

27:                                               ; preds = %19
  %28 = tail call ptr @lv_draw_add_task(ptr noundef %0, ptr noundef %2) #6
  %29 = getelementptr inbounds nuw i8, ptr %28, i64 80
  store ptr %20, ptr %29, align 8, !tbaa !22
  %30 = getelementptr inbounds nuw i8, ptr %28, i64 8
  store i32 5, ptr %30, align 8, !tbaa !20
  %31 = getelementptr inbounds nuw i8, ptr %28, i64 28
  %32 = tail call i32 @lv_area_get_width(ptr noundef %2) #6
  %33 = tail call i32 @lv_area_get_height(ptr noundef %2) #6
  %34 = getelementptr inbounds nuw i8, ptr %1, i64 68
  %35 = load i32, ptr %34, align 4, !tbaa !24
  %36 = load i32, ptr %12, align 8, !tbaa !16
  %37 = trunc i32 %36 to i16
  %38 = load i32, ptr %16, align 4, !tbaa !17
  %39 = trunc i32 %38 to i16
  %40 = getelementptr inbounds nuw i8, ptr %1, i64 88
  tail call void @lv_image_buf_get_transformed_area(ptr noundef nonnull %31, i32 noundef %32, i32 noundef %33, i32 noundef %35, i16 noundef zeroext %37, i16 noundef zeroext %39, ptr noundef nonnull %40)
  %41 = load i32, ptr %2, align 4, !tbaa !25
  %42 = getelementptr inbounds nuw i8, ptr %2, i64 4
  %43 = load i32, ptr %42, align 4, !tbaa !26
  tail call void @lv_area_move(ptr noundef nonnull %31, i32 noundef %41, i32 noundef %43) #6
  tail call void @lv_draw_finalize_task_creation(ptr noundef %0, ptr noundef %28) #6
  br label %44

44:                                               ; preds = %26, %27, %11, %15, %7, %3
  ret void
}